; Function Attrs: mustprogress nofree norecurse nosync nounwind willreturn memory(argmem: write) uwtable
define dso_local void @_ZN5clang25OpenACCVectorLengthClauseC2ENS_14SourceLocationES1_PNS_4ExprES1_(ptr noundef nonnull align 8 dereferenceable(48) initializes((8, 48)) %0, i32 %1, i32 %2, ptr noundef %3, i32 %4) unnamed_addr #3 align 2 {
  %6 = getelementptr inbounds nuw i8, ptr %0, i64 8
  store i32 39, ptr %6, align 8
  %7 = getelementptr inbounds nuw i8, ptr %0, i64 12
  store i32 %1, ptr %7, align 4
  %8 = getelementptr inbounds nuw i8, ptr %0, i64 16
  store i32 %4, ptr %8, align 8
  %9 = getelementptr inbounds nuw i8, ptr %0, i64 20
  store i32 %2, ptr %9, align 4
  %10 = getelementptr inbounds nuw i8, ptr %0, i64 24
  tail call void @llvm.memset.p0.i64(ptr noundef nonnull align 8 dereferenceable(16) %10, i8 0, i64 16, i1 false)
  %11 = getelementptr inbounds nuw i8, ptr %0, i64 40
  store ptr %3, ptr %11, align 8
  %.not.i = icmp eq ptr %3, null
  br i1 %.not.i, label %_ZN5clang30OpenACCClauseWithSingleIntExprC2ENS_17OpenACCClauseKindENS_14SourceLocationES2_PNS_4ExprES2_.exit, label %12

12:                                               ; preds = %5
  store ptr %11, ptr %10, align 8
  %.sroa.2.0..sroa_idx.i.i = getelementptr inbounds nuw i8, ptr %0, i64 32
  store i64 1, ptr %.sroa.2.0..sroa_idx.i.i, align 8
  br label %_ZN5clang30OpenACCClauseWithSingleIntExprC2ENS_17OpenACCClauseKindENS_14SourceLocationES2_PNS_4ExprES2_.exit

_ZN5clang30OpenACCClauseWithSingleIntExprC2ENS_17OpenACCClauseKindENS_14SourceLocationES2_PNS_4ExprES2_.exit: ; preds = %5, %12
  store ptr getelementptr inbounds nuw inrange(-16, 16) (i8, ptr @_ZTVN5clang25OpenACCVectorLengthClauseE, i64 16), ptr %0, align 8
  ret void
}